; Function Attrs: mustprogress uwtable
define hidden void @_ZN7min_cutC2Ev(ptr noundef nonnull align 8 dereferenceable(24) initializes((0, 24)) %0) unnamed_addr #3 align 2 personality ptr @__gxx_personality_v0 {
  %2 = alloca %class.svector.1, align 8
  %3 = alloca %class.svector.1, align 8
  tail call void @llvm.memset.p0.i64(ptr noundef nonnull align 8 dereferenceable(24) %0, i8 0, i64 24, i1 false)
  call void @llvm.lifetime.start.p0(i64 8, ptr nonnull %2) #21
  store ptr null, ptr %2, align 8, !tbaa !3
  invoke void @_ZN6vectorI7svectorIN7min_cut4edgeEjELb1EjE13expand_vectorEv(ptr noundef nonnull align 8 dereferenceable(8) %0)
          to label %4 unwind label %18

4:                                                ; preds = %1
  %.pre.i = load ptr, ptr %0, align 8, !tbaa !9
  %.phi.trans.insert.i = getelementptr inbounds i8, ptr %.pre.i, i64 -4
  %.pre2.i = load i32, ptr %.phi.trans.insert.i, align 4, !tbaa !12
  %5 = zext i32 %.pre2.i to i64
  %6 = getelementptr inbounds nuw %class.svector.1, ptr %.pre.i, i64 %5
  store ptr null, ptr %6, align 8, !tbaa !14
  %7 = add i32 %.pre2.i, 1
  store i32 %7, ptr %.phi.trans.insert.i, align 4, !tbaa !12
  call void @llvm.lifetime.end.p0(i64 8, ptr nonnull %2) #21
  call void @llvm.lifetime.start.p0(i64 8, ptr nonnull %3) #21
  store ptr null, ptr %3, align 8, !tbaa !3
  %8 = getelementptr inbounds i8, ptr %.pre.i, i64 -8
  %9 = load i32, ptr %8, align 4, !tbaa !12
  %10 = icmp eq i32 %7, %9
  br i1 %10, label %11, label %_ZN6vectorIN7min_cut4edgeELb0EjED2Ev.exit10

11:                                               ; preds = %4
  invoke void @_ZN6vectorI7svectorIN7min_cut4edgeEjELb1EjE13expand_vectorEv(ptr noundef nonnull align 8 dereferenceable(8) %0)
          to label %.noexc7 unwind label %20

.noexc7:                                          ; preds = %11
  %.pre.i4 = load ptr, ptr %0, align 8, !tbaa !9
  %.phi.trans.insert.i5 = getelementptr inbounds i8, ptr %.pre.i4, i64 -4
  %.pre2.i6 = load i32, ptr %.phi.trans.insert.i5, align 4, !tbaa !12
  br label %_ZN6vectorIN7min_cut4edgeELb0EjED2Ev.exit10

_ZN6vectorIN7min_cut4edgeELb0EjED2Ev.exit10:      ; preds = %4, %.noexc7
  %12 = phi i32 [ %.pre2.i6, %.noexc7 ], [ %7, %4 ]
  %13 = phi ptr [ %.pre.i4, %.noexc7 ], [ %.pre.i, %4 ]
  %14 = getelementptr inbounds i8, ptr %13, i64 -4
  %15 = zext i32 %12 to i64
  %16 = getelementptr inbounds nuw %class.svector.1, ptr %13, i64 %15
  store ptr null, ptr %16, align 8, !tbaa !14
  %17 = add i32 %12, 1
  store i32 %17, ptr %14, align 4, !tbaa !12
  call void @llvm.lifetime.end.p0(i64 8, ptr nonnull %3) #21
  ret void

18:                                               ; preds = %1
  %19 = landingpad { ptr, i32 }
          cleanup
  call void @_ZN6vectorIN7min_cut4edgeELb0EjED2Ev(ptr noundef nonnull align 8 dereferenceable(8) %2) #21
  call void @llvm.lifetime.end.p0(i64 8, ptr nonnull %2) #21
  br label %22

20:                                               ; preds = %11
  %21 = landingpad { ptr, i32 }
          cleanup
  call void @_ZN6vectorIN7min_cut4edgeELb0EjED2Ev(ptr noundef nonnull align 8 dereferenceable(8) %3) #21
  call void @llvm.lifetime.end.p0(i64 8, ptr nonnull %3) #21
  br label %22

22:                                               ; preds = %20, %18
  %.pn = phi { ptr, i32 } [ %21, %20 ], [ %19, %18 ]
  %23 = getelementptr inbounds nuw i8, ptr %0, i64 16
  %24 = getelementptr inbounds nuw i8, ptr %0, i64 8
  call void @_ZN6vectorIjLb0EjED2Ev(ptr noundef nonnull align 8 dereferenceable(8) %23) #21
  call void @_ZN6vectorIjLb0EjED2Ev(ptr noundef nonnull align 8 dereferenceable(8) %24) #21
  call void @_ZN6vectorI7svectorIN7min_cut4edgeEjELb1EjED2Ev(ptr noundef nonnull align 8 dereferenceable(8) %0) #21
  resume { ptr, i32 } %.pn
}